EXPORTS
    _Z10messageBoxPcS_b @1
    _Z11renderBSGUIv @2
    _Z13shutdownBSGUIv @3
    _Z14handleSDLEventP9SDL_Event @4
    _Z16hasKeyboardFocusP7Control @5
    _Z17invalidateControlP7Control @6
    _Z19runBSGUIApplicationPFvvE @7
    _Z20initBSGUIApplicationPciib @8
    _Z23setKeyboardFocusControlP7Control @9
    _Z23setMouseTrackingControlP7Control @10
    _Z24shutdownBSGUIApplicationv @11
    _Z25terminateBSGUIApplicationv @12
    _Z28renderOffscreenBSGUIControlsv @13
    _Z9initBSGUIv @14
    _Z9tickBSGUIv @15
    _ZN11FileBrowser11getFilenameEv @16
    _ZN11FileBrowser11reloadFilesEv @17
    _ZN11FileBrowserC1EPcS0_ @18
    _ZN11FileBrowserC2EPcS0_ @19
    _ZN11FileBrowserD0Ev @20
    _ZN11FileBrowserD1Ev @21
    _ZN11FileBrowserD2Ev @22
    _ZN11ListboxItem5focusEv @23
    _ZN11ListboxItem6renderEv @24
    _ZN11ListboxItem7setTextEPc @25
    _ZN11ListboxItemC1EP7Control @26
    _ZN11ListboxItemC2EP7Control @27
    _ZN11ListboxItemD0Ev @28
    _ZN11ListboxItemD1Ev @29
    _ZN11ListboxItemD2Ev @30
    _ZN11MenuControl11onFocusExitEv @31
    _ZN11MenuControl6layoutEv @32
    _ZN11MenuControl6renderEv @33
    _ZN11MenuControl8calcSizeEv @34
    _ZN11MenuControlC1EP7Control @35
    _ZN11MenuControlC2EP7Control @36
    _ZN11MenuControlD0Ev @37
    _ZN11MenuControlD1Ev @38
    _ZN11MenuControlD2Ev @39
    _ZN11ProgressBar6renderEv @40
    _ZN11ProgressBar6setMaxEf @41
    _ZN11ProgressBar8setValueEf @42
    _ZN11ProgressBarC1EP7Controliiii @43
    _ZN11ProgressBarC2EP7Controliiii @44
    _ZN11ProgressBarD0Ev @45
    _ZN11ProgressBarD1Ev @46
    _ZN11ProgressBarD2Ev @47
    _ZN14CallbackAction3runEP7Control @48
    _ZN14CallbackActionC1EPFvP7ControlE @49
    _ZN14CallbackActionC2EPFvP7ControlE @50
    _ZN14CallbackActionD0Ev @51
    _ZN14CallbackActionD1Ev @52
    _ZN5Image6renderEv @53
    _ZN5Image9setBitmapEP6Bitmapbb @54
    _ZN5Image9setBitmapEPcb @55
    _ZN5ImageC1EP7ControliiPc @56
    _ZN5ImageC2EP7ControliiPc @57
    _ZN5ImageD0Ev @58
    _ZN5ImageD1Ev @59
    _ZN5ImageD2Ev @60
    _ZN5Label6renderEv @61
    _ZN5Label7setTextEPc @62
    _ZN5LabelC1EP7ControliiPc @63
    _ZN5LabelC2EP7ControliiPc @64
    _ZN5LabelD0Ev @65
    _ZN5LabelD1Ev @66
    _ZN5LabelD2Ev @67
    _ZN6Action3runEP7Control @68
    _ZN6ActionC1Ev @69
    _ZN6ActionC2Ev @70
    _ZN6ActionD0Ev @71
    _ZN6ActionD1Ev @72
    _ZN6ActionD2Ev @73
    _ZN6Bitmap12setFilteringEb @74
    _ZN6Bitmap4bindEv @75
    _ZN6Bitmap4drawEii @76
    _ZN6Bitmap4drawEiiii @77
    _ZN6Bitmap6unbindEv @78
    _ZN6BitmapC1EPc @79
    _ZN6BitmapC2EPc @80
    _ZN6BitmapD1Ev @81
    _ZN6BitmapD2Ev @82
    _ZN6Button10setCaptionEPc @83
    _ZN6Button11onMouseDownEiii @84
    _ZN6Button6renderEv @85
    _ZN6Button9onMouseUpEiii @86
    _ZN6Button9setBitmapEP6Bitmapb @87
    _ZN6ButtonC1EP7ControliiiiPcP6Bitmap @88
    _ZN6ButtonC2EP7ControliiiiPcP6Bitmap @89
    _ZN6ButtonD0Ev @90
    _ZN6ButtonD1Ev @91
    _ZN6ButtonD2Ev @92
    _ZN6Screen8activateEv @93
    _ZN6ScreenC1Ev @94
    _ZN6ScreenC2Ev @95
    _ZN6ScreenD0Ev @96
    _ZN6ScreenD1Ev @97
    _ZN6ScreenD2Ev @98
    _ZN6Slider11onMouseDownEiii @99
    _ZN6Slider12onMouseMovedEii @100
    _ZN6Slider6renderEv @101
    _ZN6Slider6setMaxEf @102
    _ZN6Slider8setValueEf @103
    _ZN6Slider9onMouseUpEiii @104
    _ZN6SliderC1EP7Controliiii @105
    _ZN6SliderC2EP7Controliiii @106
    _ZN6SliderD0Ev @107
    _ZN6SliderD1Ev @108
    _ZN6SliderD2Ev @109
    _ZN6Window10setCaptionEPc @110
    _ZN6Window11onMouseDownEiii @111
    _ZN6Window12onMouseMovedEii @112
    _ZN6Window6renderEv @113
    _ZN6Window9onMouseUpEiii @114
    _ZN6WindowC1EP6ScreenPc @115
    _ZN6WindowC1EPc @116
    _ZN6WindowC2EP6ScreenPc @117
    _ZN6WindowC2EPc @118
    _ZN6WindowD0Ev @119
    _ZN6WindowD1Ev @120
    _ZN6WindowD2Ev @121
    _ZN7Control10setPaddingEiiii @122
    _ZN7Control11onFocusExitEv @123
    _ZN7Control11onMouseDownEiii @124
    _ZN7Control11onMouseExitEv @125
    _ZN7Control11removeChildEPS_ @126
    _ZN7Control12drawOwnFocusEv @127
    _ZN7Control12drawOwnFrameEv @128
    _ZN7Control12onFocusEnterEv @129
    _ZN7Control12onMouseEnterEv @130
    _ZN7Control12onMouseMovedEii @131
    _ZN7Control13getClientSizeERiS0_ @132
    _ZN7Control13makeExclusiveEv @133
    _ZN7Control17removeAllChildrenEv @134
    _ZN7Control4moveEii @135
    _ZN7Control4tickEv @136
    _ZN7Control5focusEv @137
    _ZN7Control5placeEiiii @138
    _ZN7Control6centerEbb @139
    _ZN7Control6layoutEv @140
    _ZN7Control6renderEv @141
    _ZN7Control6resizeEii @142
    _ZN7Control7childAtEii @143
    _ZN7Control7focusedEv @144
    _ZN7Control7onKeyUpEih @145
    _ZN7Control7setNameEPc @146
    _ZN7Control8addChildEPS_ @147
    _ZN7Control8openClipEv @148
    _ZN7Control9closeClipEv @149
    _ZN7Control9findChildEPc @150
    _ZN7Control9getBoundsERiS0_S0_S0_ @151
    _ZN7Control9getScreenEv @152
    _ZN7Control9onKeyDownEih @153
    _ZN7Control9onMouseUpEiii @154
    _ZN7Control9translateERiS0_ @155
    _ZN7ControlC1EPS_ @156
    _ZN7ControlC2EPS_ @157
    _ZN7ControlD0Ev @158
    _ZN7ControlD1Ev @159
    _ZN7ControlD2Ev @160
    _ZN7Listbox10removeItemEP11ListboxItem @161
    _ZN7Listbox10selectItemEP11ListboxItem @162
    _ZN7Listbox10selectItemEj @163
    _ZN7Listbox6layoutEv @164
    _ZN7Listbox7addItemEP11ListboxItem @165
    _ZN7Listbox7addItemEPc @166
    _ZN7Listbox7getItemEj @167
    _ZN7Listbox8findItemEPc @168
    _ZN7ListboxC1EP7Controliiii @169
    _ZN7ListboxC2EP7Controliiii @170
    _ZN7ListboxD0Ev @171
    _ZN7ListboxD1Ev @172
    _ZN7ListboxD2Ev @173
    _ZN8Checkbox10setCaptionEPc @174
    _ZN8Checkbox11onMouseDownEiii @175
    _ZN8Checkbox11onMouseExitEv @176
    _ZN8Checkbox12onMouseEnterEv @177
    _ZN8Checkbox6renderEv @178
    _ZN8Checkbox8setStateEb @179
    _ZN8Checkbox9onMouseUpEiii @180
    _ZN8CheckboxC1EP7ControliiiiPc @181
    _ZN8CheckboxC2EP7ControliiiiPc @182
    _ZN8CheckboxD0Ev @183
    _ZN8CheckboxD1Ev @184
    _ZN8CheckboxD2Ev @185
    _ZN8Inputbox6renderEv @186
    _ZN8Inputbox7getTextEv @187
    _ZN8Inputbox7onKeyUpEih @188
    _ZN8Inputbox7setTextEPc @189
    _ZN8Inputbox9onKeyDownEih @190
    _ZN8InputboxC1EP7Controliiii @191
    _ZN8InputboxC2EP7Controliiii @192
    _ZN8InputboxD0Ev @193
    _ZN8InputboxD1Ev @194
    _ZN8InputboxD2Ev @195
    _ZN8MenuItem11onMouseDownEiii @196
    _ZN8MenuItem12onMouseEnterEv @197
    _ZN8MenuItem5clearEv @198
    _ZN8MenuItem6renderEv @199
    _ZN8MenuItem7addItemEPcP6ActionP6Bitmap @200
    _ZN8MenuItem9onMouseUpEiii @201
    _ZN8MenuItemC1EP7ControlPcP6ActionP6Bitmap @202
    _ZN8MenuItemC2EP7ControlPcP6ActionP6Bitmap @203
    _ZN8MenuItemD0Ev @204
    _ZN8MenuItemD1Ev @205
    _ZN8MenuItemD2Ev @206
    _ZN8Renderer15offscreenRenderEv @207
    _ZN8Renderer19drawOffscreenRenderEv @208
    _ZN8Renderer5placeEiiii @209
    _ZN8RendererC1EP7Control @210
    _ZN8RendererC2EP7Control @211
    _ZN8RendererD0Ev @212
    _ZN8RendererD1Ev @213
    _ZN8RendererD2Ev @214
    _ZN9BSGUIDraw10drawCursorEii @215
    _ZN9BSGUIDraw10drawStringEiiPci @216
    _ZN9BSGUIDraw11enableOrthoEv @217
    _ZN9BSGUIDraw11setClipAreaEiiii @218
    _ZN9BSGUIDraw11stringWidthEPci @219
    _ZN9BSGUIDraw12disableOrthoEv @220
    _ZN9BSGUIDraw12loadFontDataEPcS0_ @221
    _ZN9BSGUIDraw12openClipAreaEiiii @222
    _ZN9BSGUIDraw12stringHeightEv @223
    _ZN9BSGUIDraw13closeClipAreaEv @224
    _ZN9BSGUIDraw13resetClippingEv @225
    _ZN9BSGUIDraw15loadCursorImageEPcS0_ @226
    _ZN9BSGUIDraw5colorEiiii @227
    _ZN9BSGUIDraw8drawLineEiiii @228
    _ZN9BSGUIDraw8drawRectEiiii @229
    _ZN9BSGUIDraw8fillRectEiiii @230
    _ZN9BSGUIDraw9drawFrameEiiiiNS_10FrameStyleE @231
    _ZN9ModelView15offscreenRenderEv @232
    _ZN9ModelView6renderEv @233
    _ZN9ModelViewC1EP7Controliiii @234
    _ZN9ModelViewC2EP7Controliiii @235
    _ZN9ModelViewD0Ev @236
    _ZN9ModelViewD1Ev @237
    _ZN9ModelViewD2Ev @238
    _ZN9PopupMenu3runEii @239
    _ZN9PopupMenu5clearEv @240
    _ZN9PopupMenu6cancelEv @241
    _ZN9PopupMenu7addItemEPcP6ActionP6Bitmap @242
    _ZN9PopupMenuC1Ev @243
    _ZN9PopupMenuC2Ev @244
    _ZN9PopupMenuD0Ev @245
    _ZN9PopupMenuD1Ev @246
    _ZN9PopupMenuD2Ev @247
    _ZN9Scrollbox11onMouseDownEiii @248
    _ZN9Scrollbox12onMouseMovedEii @249
    _ZN9Scrollbox18setScrollingBoundsEff @250
    _ZN9Scrollbox5placeEiiii @251
    _ZN9Scrollbox6layoutEv @252
    _ZN9Scrollbox6renderEv @253
    _ZN9Scrollbox8onScrollEff @254
    _ZN9Scrollbox9onMouseUpEiii @255
    _ZN9ScrollboxC1EP7Controliiii @256
    _ZN9ScrollboxC2EP7Controliiii @257
    _ZN9ScrollboxD0Ev @258
    _ZN9ScrollboxD1Ev @259
    _ZN9ScrollboxD2Ev @260
    _ZTI11FileBrowser @261 DATA
    _ZTI11ListboxItem @262 DATA
    _ZTI11MenuControl @263 DATA
    _ZTI11ProgressBar @264 DATA
    _ZTI14CallbackAction @265 DATA
    _ZTI5Image @266 DATA
    _ZTI5Label @267 DATA
    _ZTI6Action @268 DATA
    _ZTI6Button @269 DATA
    _ZTI6Screen @270 DATA
    _ZTI6Slider @271 DATA
    _ZTI6Window @272 DATA
    _ZTI7Control @273 DATA
    _ZTI7Listbox @274 DATA
    _ZTI8Checkbox @275 DATA
    _ZTI8Inputbox @276 DATA
    _ZTI8MenuItem @277 DATA
    _ZTI8Renderer @278 DATA
    _ZTI9ModelView @279 DATA
    _ZTI9PopupMenu @280 DATA
    _ZTI9Scrollbox @281 DATA
    _ZTS11FileBrowser @282 DATA
    _ZTS11ListboxItem @283 DATA
    _ZTS11MenuControl @284 DATA
    _ZTS11ProgressBar @285 DATA
    _ZTS14CallbackAction @286 DATA
    _ZTS5Image @287 DATA
    _ZTS5Label @288 DATA
    _ZTS6Action @289 DATA
    _ZTS6Button @290 DATA
    _ZTS6Screen @291 DATA
    _ZTS6Slider @292 DATA
    _ZTS6Window @293 DATA
    _ZTS7Control @294 DATA
    _ZTS7Listbox @295 DATA
    _ZTS8Checkbox @296 DATA
    _ZTS8Inputbox @297 DATA
    _ZTS8MenuItem @298 DATA
    _ZTS8Renderer @299 DATA
    _ZTS9ModelView @300 DATA
    _ZTS9PopupMenu @301 DATA
    _ZTS9Scrollbox @302 DATA
    _ZTV11FileBrowser @303 DATA
    _ZTV11ListboxItem @304 DATA
    _ZTV11MenuControl @305 DATA
    _ZTV11ProgressBar @306 DATA
    _ZTV14CallbackAction @307 DATA
    _ZTV5Image @308 DATA
    _ZTV5Label @309 DATA
    _ZTV6Action @310 DATA
    _ZTV6Button @311 DATA
    _ZTV6Screen @312 DATA
    _ZTV6Slider @313 DATA
    _ZTV6Window @314 DATA
    _ZTV7Control @315 DATA
    _ZTV7Listbox @316 DATA
    _ZTV8Checkbox @317 DATA
    _ZTV8Inputbox @318 DATA
    _ZTV8MenuItem @319 DATA
    _ZTV8Renderer @320 DATA
    _ZTV9ModelView @321 DATA
    _ZTV9PopupMenu @322 DATA
    _ZTV9Scrollbox @323 DATA
    lastRenderer @324 DATA
    renderer @325 DATA
    screen @326 DATA
    terminateBSGUIApplicationAction @327 DATA
